target datalayout = "e-m:e-p270:32:32-p271:32:32-p272:64:64-i64:64-i128:128-f80:128-n8:16:32:64-S128"
target triple = "x86_64-pc-linux-gnu"

%"class.std::__cxx11::basic_string" = type { %"struct.std::__cxx11::basic_string<char>::_Alloc_hider", i64, %union.anon }
%"struct.std::__cxx11::basic_string<char>::_Alloc_hider" = type { ptr }
%union.anon = type { i64, [8 x i8] }
%"class.std::unique_ptr.42" = type { %"struct.std::__uniq_ptr_data.43" }
%"struct.std::__uniq_ptr_data.43" = type { %"class.std::__uniq_ptr_impl.44" }
%"class.std::__uniq_ptr_impl.44" = type { %"class.std::tuple.45" }
%"class.std::tuple.45" = type { %"struct.std::_Tuple_impl.46" }
%"struct.std::_Tuple_impl.46" = type { %"struct.std::_Head_base.49" }
%"struct.std::_Head_base.49" = type { ptr }
%"class.net::SpdyFramer" = type <{ ptr, i32, i32, i32, [4 x i8], i64, i64, i64, i64, i64, %"class.net::SpdyFramer::CharBuffer", i32, i32, i32, i32, %"struct.net::SpdyFramer::SpdySettingsScratch", %"class.std::unique_ptr.2", %"class.std::unique_ptr.10", %"class.std::unique_ptr.10", %"class.std::unique_ptr.18", %"class.std::unique_ptr.26", ptr, ptr, %"class.std::unique_ptr.34", ptr, %"class.std::__cxx11::basic_string", %"class.std::unique_ptr.42", i32, i8, i8, i8, i8, i8, i8, i8, [5 x i8] }>
%"class.net::SpdyFramer::CharBuffer" = type { %"class.std::unique_ptr", i64, i64 }
%"class.std::unique_ptr" = type { %"struct.std::__uniq_ptr_data" }
%"struct.std::__uniq_ptr_data" = type { %"class.std::__uniq_ptr_impl" }
%"class.std::__uniq_ptr_impl" = type { %"class.std::tuple" }
%"class.std::tuple" = type { %"struct.std::_Tuple_impl" }
%"struct.std::_Tuple_impl" = type { %"struct.std::_Head_base.1" }
%"struct.std::_Head_base.1" = type { ptr }
%"struct.net::SpdyFramer::SpdySettingsScratch" = type <{ %"class.net::SpdyFramer::CharBuffer", i32, [4 x i8] }>
%"class.std::unique_ptr.2" = type { %"struct.std::__uniq_ptr_data.3" }
%"struct.std::__uniq_ptr_data.3" = type { %"class.std::__uniq_ptr_impl.4" }
%"class.std::__uniq_ptr_impl.4" = type { %"class.std::tuple.5" }
%"class.std::tuple.5" = type { %"struct.std::_Tuple_impl.6" }
%"struct.std::_Tuple_impl.6" = type { %"struct.std::_Head_base.9" }
%"struct.std::_Head_base.9" = type { ptr }
%"class.std::unique_ptr.10" = type { %"struct.std::__uniq_ptr_data.11" }
%"struct.std::__uniq_ptr_data.11" = type { %"class.std::__uniq_ptr_impl.12" }
%"class.std::__uniq_ptr_impl.12" = type { %"class.std::tuple.13" }
%"class.std::tuple.13" = type { %"struct.std::_Tuple_impl.14" }
%"struct.std::_Tuple_impl.14" = type { %"struct.std::_Head_base.17" }
%"struct.std::_Head_base.17" = type { ptr }
%"class.std::unique_ptr.18" = type { %"struct.std::__uniq_ptr_data.19" }
%"struct.std::__uniq_ptr_data.19" = type { %"class.std::__uniq_ptr_impl.20" }
%"class.std::__uniq_ptr_impl.20" = type { %"class.std::tuple.21" }
%"class.std::tuple.21" = type { %"struct.std::_Tuple_impl.22" }
%"struct.std::_Tuple_impl.22" = type { %"struct.std::_Head_base.25" }
%"struct.std::_Head_base.25" = type { ptr }
%"class.std::unique_ptr.26" = type { %"struct.std::__uniq_ptr_data.27" }
%"struct.std::__uniq_ptr_data.27" = type { %"class.std::__uniq_ptr_impl.28" }
%"class.std::__uniq_ptr_impl.28" = type { %"class.std::tuple.29" }
%"class.std::tuple.29" = type { %"struct.std::_Tuple_impl.30" }
%"struct.std::_Tuple_impl.30" = type { %"struct.std::_Head_base.33" }
%"struct.std::_Head_base.33" = type { ptr }
%"class.std::unique_ptr.34" = type { %"struct.std::__uniq_ptr_data.35" }
%"struct.std::__uniq_ptr_data.35" = type { %"class.std::__uniq_ptr_impl.36" }
%"class.std::__uniq_ptr_impl.36" = type { %"class.std::tuple.37" }
%"class.std::tuple.37" = type { %"struct.std::_Tuple_impl.38" }
%"struct.std::_Tuple_impl.38" = type { %"struct.std::_Head_base.41" }
%"struct.std::_Head_base.41" = type { ptr }

; Function Attrs: mustprogress uwtable
define noundef i64 @_ZNK3net10SpdyFramer18GetFrameHeaderSizeEv(ptr noundef nonnull align 8 dereferenceable(259) %0) #0 align 2 {
  %2 = alloca ptr, align 8
  store ptr %0, ptr %2, align 8, !tbaa !30
  %3 = load ptr, ptr %2, align 8
  %4 = getelementptr inbounds nuw %"class.net::SpdyFramer", ptr %3, i32 0, i32 27
  %5 = load i32, ptr %4, align 8, !tbaa !98
  %6 = call noundef i64 @_ZN3net13SpdyConstants18GetFrameHeaderSizeENS_16SpdyMajorVersionE(i32 noundef %5)
  ret i64 %6
}

; Function Attrs: mustprogress uwtable
define noundef i64 @_ZNK3net10SpdyFramer19GetWindowUpdateSizeEv(ptr noundef nonnull align 8 dereferenceable(259) %0) #0 align 2 {
  %2 = alloca i64, align 8
  %3 = alloca ptr, align 8
  store ptr %0, ptr %3, align 8, !tbaa !30
  %4 = load ptr, ptr %3, align 8
  %5 = getelementptr inbounds nuw %"class.net::SpdyFramer", ptr %4, i32 0, i32 27
  %6 = load i32, ptr %5, align 8, !tbaa !98
  %7 = icmp eq i32 %6, 1
  br i1 %7, label %8, label %11

8:                                                ; preds = %1
  %9 = call noundef i64 @_ZNK3net10SpdyFramer18GetFrameHeaderSizeEv(ptr noundef nonnull align 8 dereferenceable(259) %4)
  %10 = add i64 %9, 8
  store i64 %10, ptr %2, align 8
  br label %14

11:                                               ; preds = %1
  %12 = call noundef i64 @_ZNK3net10SpdyFramer18GetFrameHeaderSizeEv(ptr noundef nonnull align 8 dereferenceable(259) %4)
  %13 = add i64 %12, 4
  store i64 %13, ptr %2, align 8
  br label %14

14:                                               ; preds = %11, %8
  %15 = load i64, ptr %2, align 8
  ret i64 %15
}